; Function Attrs: nounwind uwtable
define internal range(i32 -12, 1) i32 @amrwb_read_header(ptr noundef %0) #1 {
  %2 = tail call ptr @avformat_new_stream(ptr noundef %0, ptr noundef null) #7
  %.not = icmp eq ptr %2, null
  br i1 %.not, label %11, label %3

3:                                                ; preds = %1
  %4 = getelementptr inbounds nuw i8, ptr %2, i64 16
  %5 = load ptr, ptr %4, align 8, !tbaa !26
  %6 = getelementptr inbounds nuw i8, ptr %5, i64 4
  store i32 73729, ptr %6, align 4, !tbaa !36
  %7 = getelementptr inbounds nuw i8, ptr %5, i64 152
  store i32 16000, ptr %7, align 8, !tbaa !37
  %8 = getelementptr inbounds nuw i8, ptr %5, i64 128
  store i32 1, ptr %8, align 8, !tbaa !38
  %.sroa.2.0..sroa_idx = getelementptr inbounds nuw i8, ptr %5, i64 132
  store i32 1, ptr %.sroa.2.0..sroa_idx, align 4, !tbaa !38
  %.sroa.3.0..sroa_idx = getelementptr inbounds nuw i8, ptr %5, i64 136
  store i64 4, ptr %.sroa.3.0..sroa_idx, align 8, !tbaa !39
  %.sroa.4.0..sroa_idx = getelementptr inbounds nuw i8, ptr %5, i64 144
  store ptr null, ptr %.sroa.4.0..sroa_idx, align 8, !tbaa !40
  %9 = load ptr, ptr %4, align 8, !tbaa !26
  store i32 1, ptr %9, align 8, !tbaa !42
  %10 = getelementptr inbounds nuw i8, ptr %2, i64 808
  store i32 5, ptr %10, align 8, !tbaa !43
  tail call void @avpriv_set_pts_info(ptr noundef nonnull %2, i32 noundef 64, i32 noundef 1, i32 noundef 16000) #7
  br label %11

11:                                               ; preds = %1, %3
  %.0 = phi i32 [ 0, %3 ], [ -12, %1 ]
  ret i32 %.0
}